; Function Attrs: null_pointer_is_valid sspstrong uwtable
define internal fastcc void @OUT_FS_AFSCallBack(ptr noundef %0) unnamed_addr #0 {
  %2 = load i32, ptr @ett_afs_callback, align 4
  %3 = tail call ptr (ptr, i32, i32, ptr, ...) @ptvcursor_add_text_with_subtree(ptr noundef %0, i32 noundef -1, i32 noundef %2, ptr noundef nonnull @.str.2)
  %4 = load i32, ptr @hf_afs_fs_callback_version, align 4
  %5 = tail call ptr @ptvcursor_add(ptr noundef %0, i32 noundef %4, i32 noundef 4, i32 noundef 0)
  %6 = load i32, ptr @hf_afs_fs_callback_expires, align 4
  %7 = tail call ptr @ptvcursor_tree(ptr noundef %0)
  %8 = tail call ptr @ptvcursor_tvbuff(ptr noundef %0)
  %9 = tail call i32 @ptvcursor_current_offset(ptr noundef %0)
  %10 = tail call ptr @proto_tree_add_item(ptr noundef %7, i32 noundef %6, ptr noundef %8, i32 noundef %9, i32 noundef 4, i32 noundef 18)
  tail call void @ptvcursor_advance(ptr noundef %0, i32 noundef 4)
  %11 = load i32, ptr @hf_afs_fs_callback_type, align 4
  %12 = tail call ptr @ptvcursor_add(ptr noundef %0, i32 noundef %11, i32 noundef 4, i32 noundef 0)
  tail call void @ptvcursor_pop_subtree(ptr noundef %0)
  ret void
}